(dp0
S'houstonUser133'
p1
S'69388ad150a814586d608483cd2ea5d32f6f0a408ba438b6bf4e13e3f219c02d'
p2
sS'houstonUser132'
p3
S'2107f206ba4dc3eb91d2a4a0e2b0674f733892ca02750c04402b2bbc12831d23'
p4
sS'houstonUser131'
p5
S'dc320ff2c155dc161265540eeb5078793e0d9320c45a6d9179427e52a9ca4224'
p6
sS'houstonUser130'
p7
S'f97e63e1b21ad8508837bf3b106352722e09ce669a4f4517ddd3225f49c8f516'
p8
sS'houstonUser137'
p9
S'59c17c5ca178de240c83a59d9519e6dbb053c1187e229a8367e206e789824683'
p10
sS'houstonUser136'
p11
S'ab72d4c6d0553174e9f853fa46544733aae86023dd23e8574c8a2ac8bf424b8c'
p12
sS'houstonUser135'
p13
S'2dcecd7d261501a80e067d92d9143cff55c878f1608bf9038dfec12d06894ee3'
p14
sS'houstonUser134'
p15
S'28eb1e4f6683010e01ca2e66eeafd9a5e178a4d8061334308707d6525380c0fc'
p16
sS'houstonUser139'
p17
S'154689fb855e05acd459c9fb27d3d7b68a4d584a46559e4c761803e223c69fa6'
p18
sS'houstonUser138'
p19
S'ebe7f9adfa9ece486d7c071d4176b3ecaabca02d90f166e912c0865933b0e73c'
p20
sS'houstonUser236'
p21
S'5934dd7079d3ea8e4a17a85b02718f6e2d2d9c9dee0af8a8e84a69bbd4d38155'
p22
sS'houstonUser237'
p23
S'88745099223d573232ad83413890f0740cd98d8f5b815a480cda2bc690ccd05e'
p24
sS'houstonUser5'
p25
S'3babe10f66c4f54e974db59d960d0c01ec3e268344e331c0a27d1a78d6f843f5'
p26
sS'houstonUser4'
p27
S'019dcbc9491733f4fe6967b45fb36e80cacdda1e2db8eabbd40c07173df72db6'
p28
sS'houstonUser7'
p29
S'8199bd33ea26d0afbddd3ac3978b7c6792a61adda3777eff90907f1d16db5649'
p30
sS'houstonUser6'
p31
S'7d6b7031576c42e8f1f57cf2c45e92ee5fa6f3b710419ba6ff6c060c7c70b777'
p32
sS'houstonUser79'
p33
S'f867caaff6df829344d1c88309de23e8ff30e0ec329d277f39e541c230fd60c0'
p34
sS'houstonUser78'
p35
S'4b199648ff14278ed5adb2a06e7b2eb634ee50eb5c14c0782c928f12b6893f5e'
p36
sS'houstonUser73'
p37
S'a1440e45b86c96e15635c3d06201a3855018b3d00011858496046414315262e7'
p38
sS'houstonUser72'
p39
S'9adff31217ae2c16751ba8cda7227bedaba27c7c8642baf957484a89a3663f1f'
p40
sS'houstonUser71'
p41
S'8a1f0f53af47cb0cda9e2d3cbee15e27f76ba2f88d62fb7a88825da42deff63c'
p42
sS'houstonUser70'
p43
S'f94c7ce9c31331bc9a7f2d5a0668dd25216f98a7921205c5fb4621c452144109'
p44
sS'houstonUser77'
p45
S'37c41ca61f6dc70e4c49f0bc1f4199185b87bee22702ee79e19ed66fa9137cc1'
p46
sS'houstonUser76'
p47
S'c5751cbc58bafe8510982590acca83ff93816ca5b7298bf832735ce52af83d8a'
p48
sS'houstonUser75'
p49
S'555f4982a9f2baa60267cab5b411eadd6f65035938d09d752aa122c99b0aa484'
p50
sS'houstonUser74'
p51
S'30a459bd2f4b26562cd01db92cc0e230f72bd825b7eb35146b71a7e48ea01039'
p52
sS'houstonUser146'
p53
S'23092d8aa457b806cdd65e68ead790509c4535441c57c6e8e6aee91793b03a82'
p54
sS'houstonUser147'
p55
S'461b56ba2444b54e1b35a463f189f5d954e313a26c566a2e0e369830e69bcf55'
p56
sS'houstonUser144'
p57
S'7204e75dfc99ecc59371c932d95db717bdd2376e5a00c4d8063ff3fc2481ab28'
p58
sS'houstonUser145'
p59
S'22d3a37b74416a5da4abf31e4ccac3b0a78ba3c49301d520f1dbcb03e79c3ce2'
p60
sS'houstonUser142'
p61
S'7eec3a8b43993fc7ca7192f25afb6b1612e157ba4d4e87f3b623c10261653c05'
p62
sS'houstonUser143'
p63
S'6bf783461ea9616fac20d2cb0d9adf3dd09996c313fe898d924f127375a81992'
p64
sS'houstonUser140'
p65
S'335d8e71e22ed5f68b18e90a6f4fc782e0f541a29b1ad147e4729fc9822493ba'
p66
sS'houstonUser141'
p67
S'dfa84801a46d3bcb49511e0db3d76d190fb49881638932b247b0158028ed33f4'
p68
sS'houstonUser148'
p69
S'e6a79f4c341b696a3e3cb07ed9fd4439df4b3ead284e96a6f562e1f4f3a1c985'
p70
sS'houstonUser149'
p71
S'c37884a7fa1f8a332d0633d6ec6558d52b7a55cc8498de6aa5651a990b239b59'
p72
sS'houstonUser490'
p73
S'e9d314c60cc6b02264222a716fb4e46cdc3a828d0f615ca8b7d32398a6b4e7ed'
p74
sS'houstonUser491'
p75
S'6bfd1386fadbb380b7ecd7ea9fe1ec4203d6122e437a315cd043907be42bd8ab'
p76
sS'houstonUser492'
p77
S'cdedf73628a72f97f6cb820e3b1e4d0432c3c70dc3a4944505069aa00a60c84b'
p78
sS'houstonUser493'
p79
S'a73d18c22d923d107e270299cbd755ba3224d251b56ae886d280f3746a62dae4'
p80
sS'houstonUser494'
p81
S'adadc5f5d0f034905ae23e5a583ad714be72977c6a26e9ce08d2cabd0a763338'
p82
sS'houstonUser495'
p83
S'5b3a7b8fa75bc52f896da6b58704b2abda4876d1c4dc16687545a8e9df2d439f'
p84
sS'houstonUser496'
p85
S'deaf4c61f968604baa48904c7109f9b923bd37d0f01c8d7ea3e41293c6574c83'
p86
sS'houstonUser497'
p87
S'efa49eea1c23da9631205cc496e17d437211ecf5428b371458213ce2ad348209'
p88
sS'houstonUser498'
p89
S'cdf1a3f20dc04b0037497f6550e2bc9f159e329e4fb0e0b2a8e1e979adc297ee'
p90
sS'houstonUser499'
p91
S'581f0fdec00310716ccb1d6e3503e328b54b0ca7b36804e43431f0ff40411282'
p92
sS'houstonUser462'
p93
S'747b58bf8129aa4fdf6ff7a8bb283ae7efb936efb927a35dc528d681a0385416'
p94
sS'houstonUser359'
p95
S'd7a06cdbaf55d9b6f006c4a5f1f0097ab5f8c86f5dd0a67e9e2d7fe51b326104'
p96
sS'houstonUser358'
p97
S'd37c4733b353304a68dc983773c09c1a578f7728b3beda033426bb61eaac4838'
p98
sS'houstonUser353'
p99
S'e589bec407d4bf40f56aaa77fa356a23e171fe47fb88cefab648d037a77f08d0'
p100
sS'houstonUser352'
p101
S'3ac5ece9952e6af2b70a89f965a96c14c7c4f0b3caa56b681c4c9fdffbd1a722'
p102
sS'houstonUser351'
p103
S'74373d9f53c9de246698c32bf68653c2989bb21c9c7a55ce37a4d81826a41617'
p104
sS'houstonUser350'
p105
S'66ebffd77519a145500e64c2d518a33aaa107d844d0dce350e4db056b5ec5302'
p106
sS'houstonUser357'
p107
S'fdb7109da5c7f055915c783af86db0519132065c7794fdda215ac8ca7ed625e1'
p108
sS'houstonUser356'
p109
S'87316c61470aca611eacd29ee9ede91a054f41133af7236f07645b88fb86f084'
p110
sS'houstonUser355'
p111
S'edfb7d8d7ceb9f37022c938d81b3de920e30c7b66a4d691ff1b3664affb369e0'
p112
sS'houstonUser354'
p113
S'89fbb60cc0a0294625fa265687e7015da5dad31d45f6a516dab265d7319d0726'
p114
sS'houstonUser212'
p115
S'3d1c89a28311ed27f940f3d5517fb089914302471967bc6205fbf64941241c26'
p116
sS'houstonUser213'
p117
S'136ef87a50555f7443955f03d64dba7f513d41b1f6dff5e0d89d05d81c1d6149'
p118
sS'houstonUser210'
p119
S'5427dd05d8cd3cb5c998a62f3f5aea4b490bb4817af5dab55585ea880dcd96d8'
p120
sS'houstonUser211'
p121
S'd10d29d19ee4505ae5cd6b6fe61b061fd7661445a4285da7c945d9d24f789307'
p122
sS'houstonUser216'
p123
S'48eb69ff6c050860567035ab087a797c2ee68da0731da8ec2f39249e9728a553'
p124
sS'houstonUser217'
p125
S'66cfb488471c27baa547def283f805168f9a021ea8f0d3a025b614c9aca74da1'
p126
sS'houstonUser214'
p127
S'95851ec14e09b6479a7a988916c28f86819308cca8f37381794d05e9da3f60e6'
p128
sS'houstonUser215'
p129
S'677392b3ac8bc113778a9a5a1a8ac521a8c63b9b011ef64c11c7c8a252aa369c'
p130
sS'houstonUser218'
p131
S'1449c86dc498a8b9c0526df5107714dacedea1426178f6b2845909a480c32aeb'
p132
sS'houstonUser219'
p133
S'f3df493fe73007a408328964f25c6218ef0d6e17a4785615ecf07cb4d15f6fd7'
p134
sS'houstonUser407'
p135
S'347b7af885b39739fcba9915b0c6f684adf001fb3b471b6977592d4e61ce2d1c'
p136
sS'houstonUser406'
p137
S'aa6e5dc663a6bf06692480af1d553530d315e423f3d9e077ddb91361a3a9b8bb'
p138
sS'houstonUser405'
p139
S'4f2d11468e15e4c033661664512e38d9d29b2a3189b10ea4bdec1981b431e388'
p140
sS'houstonUser404'
p141
S'dbae3d9ad923dd234e911fce71d523a85ec43675fc40cd31ff1107ef38363a2d'
p142
sS'houstonUser403'
p143
S'b6c534f6177706a38e2379779ad1c2d870ee99f5249d63f85e3c11c81f66a53f'
p144
sS'houstonUser402'
p145
S'7ddd6a8ce541fb96cfa5d06ed3cfbbf0964d790ec951987c5c0d7254cf97f37a'
p146
sS'houstonUser401'
p147
S'8e1892eff06c4d192eaabcfc7b0d64b47855e20a5685c285ed404c4ca939aef9'
p148
sS'houstonUser400'
p149
S'2f588be078bc242ace3a586605f708d6ba26d4b8303e0af334938d9809c31ca1'
p150
sS'houstonUser409'
p151
S'7889c575fd36506458db59be3674591a372dafd991a52ceca871c084c78dc036'
p152
sS'houstonUser408'
p153
S'd93088d549a4bd3bca19661baa7b69ce897714403ba89e0f3129c85dbce725a6'
p154
sS'houstonUser328'
p155
S'ff076ab54ae8bb92346f80498ef1d4a6abd9adf55970b42fcd45ec22f8c93fc8'
p156
sS'houstonUser329'
p157
S'b86645579339f63258173e5ba26cb34725c6421468926700f035d5bedcb70380'
p158
sS'houstonUser326'
p159
S'd03b580e7fd536ab96300a134ddaa116f200748eb10bd681492d520c8ce66f11'
p160
sS'houstonUser327'
p161
S'4bddde7048c13fcb2a426e9992eb9a9060f728237b18d0b879e706cdc437513f'
p162
sS'houstonUser324'
p163
S'e912125c97aafea2bd4a6dc70e4545f7491bbcd86ff4335a7e969472b02ff8a0'
p164
sS'houstonUser325'
p165
S'a228dbde77fee4cf2ef910424150e4c0a11b2f30c14ffe937dccb074f8f5b91d'
p166
sS'houstonUser322'
p167
S'fbf998872d50477779f6bd107bc74c9350fb42b6c7eb1b1f8cdd1a0f18427e28'
p168
sS'houstonUser323'
p169
S'3c3538f4b2ebd4872e53092e4287a2a1390b33b2ff2a814fc7b91440b108c5de'
p170
sS'houstonUser320'
p171
S'87be4c1b32acc4dd4b8cab5cda54e3c4a1de55a28c8631cece162996c33200d4'
p172
sS'houstonUser321'
p173
S'7adb53c5ee83ca44fe454bd8e63e38c1517d68fe89efd7fb00d1da0c2aa12059'
p174
sS'houstonUser108'
p175
S'69d0c813b0e5ad4380451ec97e25305561d8c922a72da5770b608ef72d5ed6ca'
p176
sS'houstonUser109'
p177
S'7a19acb5f43e74287385120055e7f99f230a5fa3662055de66c59826e6ec339f'
p178
sS'houstonUser102'
p179
S'a9c619104069f35df099f8ea90425715191178e9c3728b00ae115c0ce90d6342'
p180
sS'houstonUser103'
p181
S'f409f90c2353ea1cf514adf54706de3a7d27364988d213b11357512437f0b942'
p182
sS'houstonUser100'
p183
S'd84d329cd261c2cebb6954f07f22ae8a1c8ac850b8fbbb35538c6800b5d90576'
p184
sS'houstonUser101'
p185
S'18313f94b3dbf74dc655a5a03d601b6303cc4558b3fee8fa9917e29b3d2e7eba'
p186
sS'houstonUser106'
p187
S'5623f9fba5f4df46c866de87c5dde5ebb5ee02e5077cf39e041405e575c048c6'
p188
sS'houstonUser107'
p189
S'2e3eb72cf97ddd1a5a61bb553d3e4593b6ed0ceb0d1d6abee18fefe14638d299'
p190
sS'houstonUser104'
p191
S'f161a6d9d91a9b21df8a3382e02ee469237c8f01a4071696389ae513f271a16e'
p192
sS'houstonUser105'
p193
S'5d0f0590b087ef8a0c888b0466f2e4285fc0e695049ff051b978903e81408f7c'
p194
sS'houstonUser88'
p195
S'98c0f29fdea0c4f98ac30cbe45832bd0f225069d5decfe5a1698c1267eb00827'
p196
sS'houstonUser89'
p197
S'92cd0abb166ac4e9b59cac8eb67c784fd09a574545c7c8830f274d5ff702373e'
p198
sS'houstonUser82'
p199
S'0ecdb7d99f88fb78203507ac25a9cc956226a6e3eb1d356fecc7ac1b5dfdfa05'
p200
sS'houstonUser83'
p201
S'67e9f51b16a923ee1f712877cdba902cee1521230cfb9696daf89520e9d2060a'
p202
sS'houstonUser80'
p203
S'77796f61544b367f157485e9ce2af70379f3de5a325814e5b6eb8d8471c6910c'
p204
sS'houstonUser81'
p205
S'761c3a3c5af3715db3d0556b0927bda138fa647157d292d72ef3c228fd795aa6'
p206
sS'houstonUser86'
p207
S'8cc8bfb8b471ad9d3f948e84a77413843ae060b3102c52711ad365389b089053'
p208
sS'houstonUser87'
p209
S'62030f79c63f80b68ef9aa00ea13fdf467667b4e9fe4ab64fe1f18c63a2fcd29'
p210
sS'houstonUser84'
p211
S'd79e8bc97b1ee73c4dbdeaf3deb2366ba5ce042bccf0f2b683077696c1218542'
p212
sS'houstonUser85'
p213
S'7136620b9fa47c5219d87461591e4d6e25c449fcc3db70f6d236c93537db108e'
p214
sS'houstonUser234'
p215
S'4b0bc84766e4940126b034272883d302b2b52b59d08df8d5975f7e7d0f3eafd2'
p216
sS'houstonUser235'
p217
S'1eff7d6e01227573c1b54ca9241cef03454618779ef9c7bc1974a0d74940203c'
p218
sS'houstonUser191'
p219
S'a213c34319b77f184298419fa5ada30641c14d0c999ffb7174aa8a371b48e441'
p220
sS'houstonUser190'
p221
S'6427a7b6be72b5d536e60d71207e7c37dcad0e334b75fd47a6a012a638a9d1fc'
p222
sS'houstonUser193'
p223
S'203b6ba2b9d5c4b2e3272b2a41c0a85f7147f86da36ac156919dfbe5af47ce15'
p224
sS'houstonUser192'
p225
S'333ec2439cfa88315ca9615a300f015b6222c61dac00ee7557780f7aa38048af'
p226
sS'houstonUser195'
p227
S'996af176c9a77b342ae69b7f1de03b3e449ffa1160246ef9045413e4a692d111'
p228
sS'houstonUser194'
p229
S'77b866f87303cc3a543a37bf3fa9af86795deccb33aab678bb6ac50e5258b998'
p230
sS'houstonUser197'
p231
S'1cf23f2407f17e8a09b22762d339a323e61373721acf5b3d69b520c8b7f41ac2'
p232
sS'houstonUser196'
p233
S'621162554e6ceccf53c1df01da18e89e47d8182334291382af8e3a34e97c45da'
p234
sS'houstonUser199'
p235
S'149e89f444e83f9204980a521839fa1a2b21e8feb95fe102afef926740774421'
p236
sS'houstonUser198'
p237
S'48e7faee33f6a2856b1b62a433c7aab9483d25db945d77d22fc7a41762c19f50'
p238
sS'houstonUser35'
p239
S'ae2807d729752fb627d7a5b8efeb6890c014abdeaa1c4b5e0682caf6e25a8ea9'
p240
sS'houstonUser34'
p241
S'b7f5a22ea1590bfa9d89d20cb6f26a7bc3a6caf63a485d22f2cb2819cb29be81'
p242
sS'houstonUser33'
p243
S'52bdd263e95be050409a39c95b92d55695554b0193ca9fdd1b62ad1daf776d78'
p244
sS'houstonUser32'
p245
S'2eec34ac6ca00338cbd14ac6b876a20750f5a6e3679224439741557c6582f3de'
p246
sS'houstonUser31'
p247
S'67328c0ec6787ad121d3bd15a01715c786f819fa19877afa43f53999a442579f'
p248
sS'houstonUser30'
p249
S'd0b4344e78f61690cfb44a867e39016de537f8f5723bea9dea6ab50a71597344'
p250
sS'houstonUser399'
p251
S'c95b9ff893fb8ddc1aa9d5532e77fb19a5245d741796f15b09a1bee824002c9a'
p252
sS'houstonUser398'
p253
S'bfbaa3c871a0a34cff2c82301b781e8693b6c707ae2f725fd8a1e4f1a7700176'
p254
sS'houstonUser397'
p255
S'1eebcf81023c2391239ca8135655aca193e4fd2d6c675836dc0a7fe145e84ecd'
p256
sS'houstonUser396'
p257
S'fef090fc329917e2ec9f3986a163284eb6a588e5f9df00803981baa95b9c92e0'
p258
sS'houstonUser395'
p259
S'11c61fc74209623f409b577a1e763a0764232ef18cbc6c018b1f2ac641184b74'
p260
sS'houstonUser394'
p261
S'8d503a7b1466f20d28e1a6eb06e5837377d3e65eba6441c5c7bc4e881080cbdf'
p262
sS'houstonUser393'
p263
S'688eb9df2374cb4ef79ad5bbdff5df7c77bfb63f7eaf3da01bba193838fac9e9'
p264
sS'houstonUser392'
p265
S'f382d7842fb11584ea547c75f5edb3cde132f214c58effac4d42f7594153e552'
p266
sS'houstonUser391'
p267
S'02bcc935818e8cf18f3d5c2526a53db60edab4d2edc20ba30c778ba6ccef7727'
p268
sS'houstonUser390'
p269
S'f9549e5836f4735a9bd0cb06bc273ae29021aa789e19b1ae61e47e3cacded8d4'
p270
sS'houstonUser449'
p271
S'ea684fb084e4cae05f6363f275bef493c9d3a9bea751a93a47fb8f017a6510d9'
p272
sS'houstonUser448'
p273
S'8dcfca779fcaa34e17d875e2653bc7bd0227b76c9e435f05933c3c7010fa5682'
p274
sS'houstonUser443'
p275
S'9514b8976d6c92b66244d36b127e254a2db67b1c87c52c7717f08f1a5049c5a8'
p276
sS'houstonUser442'
p277
S'40127ccf4b2a8e2270300cfb6102a5c6eba270e80be81634fb9a307d111faafa'
p278
sS'houstonUser441'
p279
S'7c16b541a4d5c0d94c60953c98a1a7e84816c589d183d11404db2732feb18e37'
p280
sS'houstonUser440'
p281
S'e997d29858500e75e89b79c884a39ba55155af6f8048b3bc06151f6975ce3027'
p282
sS'houstonUser447'
p283
S'6102d3faab44aca1446a2865923605705072ca4030eafae7411621b44c294078'
p284
sS'houstonUser446'
p285
S'1e16fb6602a095b2d9561bf64c63ede7a1029f73f1ad3a2235126bd9d25fee4a'
p286
sS'houstonUser445'
p287
S'81c1e40622638375c39771f6b5141b4f35c34b57d204fc636a364f553c172543'
p288
sS'houstonUser444'
p289
S'ce0b2ee7d442c16b0dd46e7e3e3034448cbf6343d854e61606395a2481697c77'
p290
sS'houstonUser362'
p291
S'72b6a296aca03f08d854b62515f85ddfe66ae750857c7283ed0767d9b9345cb4'
p292
sS'houstonUser363'
p293
S'42b0c445f5f71d6668fb483ad35ee12a99bb595cc70a49b7c45102e0852a863f'
p294
sS'houstonUser360'
p295
S'014d24dda8dcd01e9c2ae291e037d94e3c1d17c9f27c04113493bd47649e581f'
p296
sS'houstonUser361'
p297
S'f5d1851b0e88ca037e49383f68744618f9ec23d19d79e05e947510a9c579c236'
p298
sS'houstonUser249'
p299
S'c3b176abf8e2d906dc354c5e3f86f5fd51974bc7043785241ac6144ba76faad9'
p300
sS'houstonUser248'
p301
S'de24c5bbe475d116fdcf74a24bde7d4074296e9e69b1aa7198a5b8d1d26020fb'
p302
sS'houstonUser364'
p303
S'cf7212b5c74e0bd971d95be60723528f95e94856ab56fcc536b2196eb5be44b2'
p304
sS'houstonUser365'
p305
S'4c301db260e82345cc07657fab739445aac57612c3bff7d9f70bc990b16648db'
p306
sS'houstonUser245'
p307
S'550bc9a5242b17f2ca41bff7f7322c0bdccd4ddbd5e60e938fe2c7de07cd0540'
p308
sS'houstonUser244'
p309
S'b4d116eac2938bb3c07695e6558272bbfeb701098cf031512f3b11c1f0e80de3'
p310
sS'houstonUser247'
p311
S'1f6626033d25f88cb826dd6762dc44570b91bb1fcd58288f77652a05f2ea88ab'
p312
sS'houstonUser246'
p313
S'317b405eb2b3e9f6353fa1b68fbf159cc2f6dcb1ec722e7ace1f13633d398de2'
p314
sS'houstonUser241'
p315
S'26290653be3a1dac671ba759b3ec2b0f39bc06dbda7ed427885f2fa9b118f4b8'
p316
sS'houstonUser240'
p317
S'd40e398159b1be851eae19e8f4129c8b2d1f2455a83fc023c1583aa3ab1e29e0'
p318
sS'houstonUser243'
p319
S'219d60467d19905715a780523b0f9f364ea26f78e87479992afaf418cf7c4c90'
p320
sS'houstonUser242'
p321
S'6e7bf5f44b7df1d700aa8860d0a7d7fc7ad757229f04baf171b5d7d237f74353'
p322
sS'houstonUser438'
p323
S'56bca97cdae1f9a2e629b766546e06aee4b4b80f29affdadaa45f06291a052a2'
p324
sS'houstonUser439'
p325
S'23827a4859cda6c0f3aaa79bafb5b91b2035b9c038b0263f33a75d55d28e74e2'
p326
sS'houstonUser436'
p327
S'145c0055557eef3506f3adc43f0a6e57c4ebd05b8193d95c4ce342dbfe752fdf'
p328
sS'houstonUser437'
p329
S'008860532c9f7e561d3980875a20fc10c285ff5aa04d7268edd08ed69904d933'
p330
sS'houstonUser434'
p331
S'2a59954d68bd45f78e82bb9bb093b63f09e548bbd422db873244138ba225f8ff'
p332
sS'houstonUser435'
p333
S'3e1aa2c4fc0f7f9d4e92e6b57ac0e9f523039f7e3f1914fe641019f0033df756'
p334
sS'houstonUser432'
p335
S'f2e0ba85c7ec04e2a4debbe586a1224c036f58444f1364c108783a6a5d626c9b'
p336
sS'houstonUser433'
p337
S'e6f56d2e70832967bbc6b4802ebd7b8d0e11fa3ea920e0f09bd66349da500829'
p338
sS'houstonUser430'
p339
S'537703e5264a7e4497ebcb9c9458ac5cd50cec702e2b0bbc9faa68f3c820d764'
p340
sS'houstonUser431'
p341
S'46299fd266f840236f587f0b8d58c4440ab25ad7ab9975f4440d32583d4f220d'
p342
sS'houstonUser371'
p343
S'63ebf2942956143112cabeba79ae5fa06a565b67b2ded62874461218b15dc309'
p344
sS'houstonUser39'
p345
S'7bc9ac6f84719909f6cc8ea764bd8fa30e1dc6c497378356bc09f473233a3273'
p346
sS'houstonUser370'
p347
S'cf4e025ff43d930cf9780325fed5b2cbe94c751403b5a5e1f24700824ea7e0b2'
p348
sS'houstonUser38'
p349
S'228360541e794f9ade2ea2ec15404b033d7fc2a10440da2d4979c8349f7ae9e2'
p350
sS'houstonUser37'
p351
S'bc6763f900f8fa1f001a6adc9fb17393fd6121c9cc7ed5e2cbd1c3ac5580b022'
p352
sS'houstonUser36'
p353
S'08cc27136b71d99b43d1e6e3dd2a10cd9da31b0fd3cd1bb0c0e2545901be08cb'
p354
sS'houstonUser379'
p355
S'ff379c23c1558905d79bb8e661006d604f852f864118a8a651249bd41b581561'
p356
sS'houstonUser378'
p357
S'cb11897b9e88f3ab690ef2acd05705c77308f63e54633739ee73a52fff59730b'
p358
sS'houstonUser64'
p359
S'd0b9e35f5cdc546d2fe32194e4292cbaa7f0d1799f406de5118fa074f2756a5f'
p360
sS'houstonUser65'
p361
S'2cbc3acd71c83efbe70d0d9b4eb6e8b9416d8706d1f16b05f1fc2657300b52cf'
p362
sS'houstonUser66'
p363
S'89b303ade999c599bf2d611eabb5537302829b25c6ad6a4bbf7dfc094d3d18e6'
p364
sS'houstonUser67'
p365
S'0ab6e1a48a4cc4fb4d087dd4583f2ee16ec4239361d9a83c8797fe041f9f28cd'
p366
sS'houstonUser60'
p367
S'2e9ecfe51dfef72549ef73656328763874efcc33cba010980c1904fad377087b'
p368
sS'houstonUser61'
p369
S'32c99c1d2a7bddd26ea38bc3be15b0eca87ed078646f4cd72a66419682e70b07'
p370
sS'houstonUser62'
p371
S'de2b0cc68cd7a7a4e5d5b2b5ba74282879cb85818e50c198564e049aa8251c46'
p372
sS'houstonUser63'
p373
S'ddd9b2a4106319004ac6f87a1ff88991b92c509684c15fb91d94c35c9ff0ffab'
p374
sS'houstonUser68'
p375
S'5e247fad0ff2f2803143d328735665fbfa08994a6fb7eb2cddede644ac9f5171'
p376
sS'houstonUser69'
p377
S'8fe73434e3ccb656fbd0af51b5fe9ee9f8e5a2dbfd5531bc2fbee2b577acc686'
p378
sS'houstonUser155'
p379
S'1b41e8992c69f4091cc9c473f0ea2e4a5c3c0dd2a8c911f1e921ac0cbf81cb3e'
p380
sS'houstonUser154'
p381
S'56c84870497d1dca311f0ff1d79b9440c9ac2165572aff69eeefb26071b832e4'
p382
sS'houstonUser157'
p383
S'a094a00b22bf964d3b8fc919931f87a413020db22fb54fe454af8faf6abd8f2b'
p384
sS'houstonUser156'
p385
S'e1b11bf308d72361cc18cca3883598cc690e5e08bfa87725b00752b4a652689b'
p386
sS'houstonUser151'
p387
S'170beb6ffde51750ad0d014cc2a96b129db08e3f03c84c075b4dbe2f11e58bb8'
p388
sS'houstonUser150'
p389
S'e18da6b86d156ec965d1326595b15388f2e424a1d78e516fd86bf967b02be70f'
p390
sS'houstonUser153'
p391
S'9fa6e732642e9e8a507c4f60dfe77d3dee277ff3037baadf5ee2ec427808a208'
p392
sS'houstonUser152'
p393
S'a33c86cfdae6781e0d60abc9a891fe80f8ebc985f9be53b8846f8918f624ce0b'
p394
sS'houstonUser159'
p395
S'b149a3ac0c87cd4c38ae10f0fbfd2e1859f79f8bfce6bf4ca473434f30a675fd'
p396
sS'houstonUser158'
p397
S'e7e65c91da8916c5be525f76653d7ddfd998143406ba2d07bf8137760ab5bd9a'
p398
sS'houstonUser298'
p399
S'f06258ea72f7b9bb397aa8073e09d6243594d05a52175fbd0d91107cae921c7f'
p400
sS'houstonUser299'
p401
S'08ec7ffeddac7c76fc8be8deec3a9b0a96584c8656f38953610f71d67bcd8ef0'
p402
sS'houstonUser251'
p403
S'556055cb24b8ad0a8fbd86e4039eb8a96ba88ae575c441dcb63f86464f27c47e'
p404
sS'houstonUser292'
p405
S'8e3af1a97cf4e31cae0d4bb846f7356be021f037cecc756c2468ca355e75c7f4'
p406
sS'houstonUser293'
p407
S'81e898ef5e44e2be02a3c84a54456e60ae7072ae4895ca06504c8b6ce2b67850'
p408
sS'houstonUser290'
p409
S'd1fbb4d043377a0a9da9c5cb15157e688e033c02b6848f5fe4eb4717ce2bd727'
p410
sS'houstonUser291'
p411
S'30c9e884872dfdfc75c1a548b140d0010befd6243d21c52441bc7dd9166e2095'
p412
sS'houstonUser296'
p413
S'309194c428eb3cdc08d7218b3dd51acfe7f2b1e3955efd161beab77001d42320'
p414
sS'houstonUser297'
p415
S'd2cb3f293628178a7069b01b3bb591bd5f31ad64a01a97b591417b27ab281c5b'
p416
sS'houstonUser294'
p417
S'9f818573cdf2d591655989c780f291c978293acef4f4737356ebe06904ba7da1'
p418
sS'houstonUser295'
p419
S'371de406b72f383820f7a784f86b7a0ec0b3c9027cc6a42811dc8e9a0d770c09'
p420
sS'houstonUser489'
p421
S'a16388bd2973ce0b007ef2a58c8016b35b720d443e9e3648876cff87f378cb0d'
p422
sS'houstonUser488'
p423
S'62a577b3c0cd2be60a7e9c6a72b6a043b37f448c53b05f9deb1668b37946d8df'
p424
sS'houstonUser487'
p425
S'29410ff2eb4896ff790ccbf39fd612d029183333bb4ae5e3034742a91ab83e7c'
p426
sS'houstonUser486'
p427
S'8b77faa68e5d31508b8215379ff2f17299ab6f9f033d1aa33bc829bb1594aaa6'
p428
sS'houstonUser485'
p429
S'49cf8b3e2ea6a7b43be214dbf5edcbb00c9602555927d11e92e6cd516d8e2b0d'
p430
sS'houstonUser484'
p431
S'dd897a1e1e2e4d7ab30a36f045b4cea5497a6764b4797bc7490cb7fe55f88f36'
p432
sS'houstonUser483'
p433
S'3ef56191187ba3c474b485a7cf1644a918aa81cabd287a0bfa9ac312d37a48d7'
p434
sS'houstonUser482'
p435
S'0405db86d8a7a6dfee2a85cdc09eb719c828abf285507d0c64133b044fb87ee2'
p436
sS'houstonUser481'
p437
S'9fbc77ba198fec6002bda6e943eb43f441aa9f112891c3e411e0562f7237b2d8'
p438
sS'houstonUser480'
p439
S'90e88b476a54e3fbe98cb0e56ce68c92a92004f3540da1e4076d8813705b73bf'
p440
sS'houstonUser201'
p441
S'73ee86e77e9382685b0e8ba947489bf7976c436aba14b3fb8b56a243ec26e5ec'
p442
sS'houstonUser200'
p443
S'6f949aef7e1ba7eca2d9d3cb6956d5c097e3f684ce9799b98a70c9853a83dcaa'
p444
sS'houstonUser203'
p445
S'5f57f7ec21169e9519b83587b49c3c1778fbc3a5efed395ca6c7ef5fa83cfb69'
p446
sS'houstonUser202'
p447
S'bc3d4a3ca297c3fcc70c434bb72c899dfd4a7c237e2e4ca9c8466dfb0c461f75'
p448
sS'houstonUser205'
p449
S'6949e3ef5e2e96c407161a2870f19f1db89af43771bedb5bae05c4dae4878aaa'
p450
sS'houstonUser204'
p451
S'8362c858284ed14b88155a5e81277a0350e766d6b1648503854d587ca6461f60'
p452
sS'houstonUser207'
p453
S'62984b215589d662c1441198277dcda4784786564dd895775049c8fad6b686aa'
p454
sS'houstonUser206'
p455
S'206a7fb18ca3611b9e68d346736f2b13095896b288572a83dc9106d5d0e2f6e6'
p456
sS'houstonUser209'
p457
S'33b92e243743f6c1539c1616dcd547f0d364d95b6520892eb21f9641eb487e98'
p458
sS'houstonUser208'
p459
S'06281847cbf433c1da385e030dbf803bf5802ea65b00f23c483e02fcb1ceaea8'
p460
sS'houstonUser472'
p461
S'48d80d95104f1e3428307fa718acbe42d1e2e879d8db494c846fccba0f63fd49'
p462
sS'houstonUser473'
p463
S'f2e90d4f72b61480b16bdf130914221befbb776db7ec38eb211b2af98028cbca'
p464
sS'houstonUser470'
p465
S'b6d57ebe3405b590a102e9f9ac6dc52de1e8a5093702bf7d7bfdee69d294d1b5'
p466
sS'houstonUser471'
p467
S'8f963fef15f31ae18f0f99219abb255a0655355a158187cef9f673d578ec1edd'
p468
sS'houstonUser476'
p469
S'13aa9c3c52ba455eb838ca69727ccdaf6a179ae90fc8f466f92b65e835071ebb'
p470
sS'houstonUser477'
p471
S'e0092514e350a20a588b86e6e0737b039c5e2d6e8f83776b0c2a64de19ea5c00'
p472
sS'houstonUser474'
p473
S'a0914cc817f19d4aa22fd73b9ec78bd69eedf4d78d20d178ded93703e0989d62'
p474
sS'houstonUser475'
p475
S'9c4744dc966ac96cadc3bd87f5b816eface38941a8163afc6a2c79017a53d7a2'
p476
sS'houstonUser478'
p477
S'392c68895162f220751309d285b0e5c10d58a5875166911eb7ba8ca2fc7175c0'
p478
sS'houstonUser479'
p479
S'2b384df2fa0c54968000bd36427e605d2dc4a3b1f20a7cca399db60c1876e6ab'
p480
sS'houstonUser339'
p481
S'137bd48013e9fddc831b132686e28692f005a3eed4922492b6402f0ff84ababd'
p482
sS'houstonUser338'
p483
S'ef2cd57c0a55fd0d76ea9d1ba38531916521a755d6658d31036ca9b79dd354cf'
p484
sS'houstonUser335'
p485
S'f1bdbfcf9ce69fde7423c3d0289f02dc20e790275878f5ffd7adfdd518370038'
p486
sS'houstonUser334'
p487
S'b2a5ad3c3e1d370672ec776e16cb41ef6ad062843f23a0a53421605f2ccf1f11'
p488
sS'houstonUser337'
p489
S'f51343dce9f7e0c46327b24ca1717aa6a0bae13c11b4e4581be1179a5c61ffb1'
p490
sS'houstonUser336'
p491
S'8c140b6bd18b17f801c197f861b654db4826b9de6c4b166c3fe7dbfac3ee1480'
p492
sS'houstonUser331'
p493
S'a2773d9f3930af8f6de2f7287f01fae7c7227239c3d85b69180719ea2da8f480'
p494
sS'houstonUser330'
p495
S'd0382e7f9841039b5409a46cddb8a419f8eac22722fa311d922c900a560df228'
p496
sS'houstonUser333'
p497
S'dd8f9a5c0b1445aa37cf7a45cb800edfc5ec6e02bd6d62e3b74d8bf9ecbc9da2'
p498
sS'houstonUser332'
p499
S'071083334a4a1a6e9e7904b83094efb0bf371e9504374290f9698f682d6a24f1'
p500
sS'houstonUser119'
p501
S'c56e1a40845b46df2a47bc2b881ed217b981a6f5e02edea7cff0601a4f04fac1'
p502
sS'houstonUser118'
p503
S'e75a12b05724ab3de1ffdb69156621acb54a8826ce88c67c81fd3d470338f1ef'
p504
sS'houstonUser111'
p505
S'383317bbbafb4185c6095fbad6ba559b7c70def908dbf9c23604aa0e81c7628d'
p506
sS'houstonUser110'
p507
S'65dbbd2103953d286cf09c5077e083cda2ce5e1a338e6f77cd8069156d0c966c'
p508
sS'houstonUser113'
p509
S'761425929581346acc0a747700651002371300f46bcf2c793236cd536d123838'
p510
sS'houstonUser112'
p511
S'c1906fac7c1a593861fb8c78535d2c009d164d026f4f24e3b66298cfa1eaca04'
p512
sS'houstonUser115'
p513
S'1662b93d07fb73e45dd57eb81d5a9a557ef7654504973d9bc3940467f5420188'
p514
sS'houstonUser114'
p515
S'909d32b4622bcd38d4354dba7e12571c1f48f5f7771fa15b10417f756926fcac'
p516
sS'houstonUser117'
p517
S'e4b8b79f88d9916d39f377b2d11f5eac71b57c096e371bee37248f73827b701c'
p518
sS'houstonUser116'
p519
S'24a8dc7262a241a14b0e846b3aed59ab39d892e7d0fe4d69b2cefdda5aeb820b'
p520
sS'houstonUser59'
p521
S'a035451d3535092cf06616aee14ca32bb60bcd9b7a6cc60130edf55aeb916af6'
p522
sS'houstonUser58'
p523
S'afe3b114e58f743833f9963d42eff2e8101f0055d6f495dfd3f36adeb3e0fd5a'
p524
sS'houstonUser55'
p525
S'5f02ae0fd87f7267b4d99ad4c2193f9f9e08c030d9c5d886f28934e8ad26d275'
p526
sS'houstonUser54'
p527
S'bc8691711397d48aed19c1f501a26a278efa35d4587a4e170911e62b9e83d129'
p528
sS'houstonUser57'
p529
S'5c040fa62a272ca7889f1a774bb215c70deb0d468fb82120c9c45c9425511c5b'
p530
sS'houstonUser56'
p531
S'132187f623043803cba929d73d42242b6c0f1608070b91979d894156b9e57942'
p532
sS'houstonUser51'
p533
S'865675e3fe3a64bbb80acfbdd9641b0efe9a13b1d0ec1d700e1399c2f73b33f4'
p534
sS'houstonUser50'
p535
S'bce70bdf1c903c76eb38c4a587946643f24a4192f878e2c6a638dfddb20645a6'
p536
sS'houstonUser53'
p537
S'e8f407b2fe90c4ae0fdcb5f81bab84f73afe818ebddabfd3ee90544654ed004b'
p538
sS'houstonUser52'
p539
S'a2aacc7d222ecfd20d0fa2305de125aac2a97ff80438150fd6274160da1eb224'
p540
sS'houstonUser28'
p541
S'a834009b3110240bc33ce3fabc371ca96bcf31aa910a7680843b451a3eaeece2'
p542
sS'houstonUser29'
p543
S'a6a905ef92b538e61ffaa919a732ee13ccefada261d9aece5438a563a6dabefe'
p544
sS'houstonUser20'
p545
S'bb0ec101592e5956ae274c189636fc111b77fd0eb9e6beacb28ac4920bf45b3b'
p546
sS'houstonUser21'
p547
S'c742258a8f8598b20a22f4671d210673c7bd9fe7c42a56478040af2700a2ba03'
p548
sS'houstonUser22'
p549
S'8a4b6410e39be16c84fcefe5448719963b05ca73b561793ca62f41e9c735e788'
p550
sS'houstonUser23'
p551
S'af086b38d9299a7cc0fe2b5319e5d786091d2a20ccf775ac5e303a1f5762e715'
p552
sS'houstonUser24'
p553
S'6fea7944ebeab4abec930433924f1a81f40fb56c179fc98488edcbd04de84fab'
p554
sS'houstonUser25'
p555
S'ccb57c71366f3e68cee393a1bee39d57fddb71cf1af5914cbe5c7a28e8f08d85'
p556
sS'houstonUser26'
p557
S'48866153a7c0c53d4412abe0e332a6c7340d173fb94a6feeeb5bbdcea224bede'
p558
sS'houstonUser27'
p559
S'32cd6f854811d055916b7b3080140ac815dd84719ee155208889df1574d2a45d'
p560
sS'houstonUser278'
p561
S'4efcb1a020a7b5576f33ffe2974a979274780a44b3a3dbc950aa2f4eb0b41634'
p562
sS'houstonUser279'
p563
S'dbc412e89406f005cd873089c47485fc01a7c9f58fbadc7e77684cee6c3d1272'
p564
sS'houstonUser373'
p565
S'3d14df9b9481729621f898d4c8fed07a1907a06abc46d158f3da5a06dc8f09c1'
p566
sS'houstonUser372'
p567
S'08d52a89336252ec17bc79b1b60bd7dc7ab3e5943e3392a518de84fc3ae7b035'
p568
sS'houstonUser375'
p569
S'adc87af308ac0887b00eca11496efced80c47f591308f7431dddb187ca87e55c'
p570
sS'houstonUser374'
p571
S'33c5cf3881f5ddea294113ce84631e665616e5092d22ef24b047b9fdb512b695'
p572
sS'houstonUser377'
p573
S'add9d6128a26808f474c9b4c6e318adc153f89cb9f9259e9dfbd9e63857eae5a'
p574
sS'houstonUser376'
p575
S'62bc49d286a9e6c999ad5b2c507f760e37230e4a93d36949da714035a87ae500'
p576
sS'houstonUser270'
p577
S'c37ee801ce9d078e7e832c3ba32b9c657931ba3c7f91859096aa7035f8f77ec1'
p578
sS'houstonUser271'
p579
S'0f6dac0cae8641bc23c8cc3f558db90afaf1aa3d45459eb4291a6df5235918e8'
p580
sS'houstonUser272'
p581
S'e687f145e5c48efe18715e09f3bb0b2282deda5eef4f6292bd60998f1acb5139'
p582
sS'houstonUser273'
p583
S'826c5a10566c90f6a7b4883ecb07dc5f361c80cea8c2ab18f6f077b72730834e'
p584
sS'houstonUser274'
p585
S'7474325adfd0b9a36c9c72a8b64f13371e5ea2c131ba210ddad76403867a9f1e'
p586
sS'houstonUser275'
p587
S'e2eccfaf3307364b2e9329a7b8d5ff59aa889e6bcfeb390376a7d4639fcb7542'
p588
sS'houstonUser276'
p589
S'4f3a3ad319be6bbd07d73ea1dd3e4bf48df832e8fa3f0898fd84442589ef5adb'
p590
sS'houstonUser277'
p591
S'8c9420f10fe886bfd518ecd88e1228161534dc73685fd4af92a54ff4d78f75ae'
p592
sS'houstonUser429'
p593
S'f9d6d3e341b59fb4d95a56849bae89ed597646bb73fea8bd7b131e25c262e4f8'
p594
sS'houstonUser428'
p595
S'99489ab1db7bef55ea8a40119a725caeccf4e2348edf41843a2b87b3e5d14810'
p596
sS'houstonUser425'
p597
S'ce5b3aa7cfcea009474428d3a5815528310defeff5b7c2702ceaeb739cb98da8'
p598
sS'houstonUser424'
p599
S'8a2a26b992495d97de816bbc3e169d5e526256043a7235a505a6ac5e663b4389'
p600
sS'houstonUser427'
p601
S'a77e8aa72fa81747fa3611a9b4ce9f4a73be4b0407b706343bad96cffbcd8992'
p602
sS'houstonUser426'
p603
S'b992779dc40ff58ba357afae6608c124470654b7397106b456744a3f64f7360a'
p604
sS'houstonUser421'
p605
S'769eb5a2d3ed523c811eaf4464f8d05296f19cfbcc5daed8a46575a494e03a4f'
p606
sS'houstonUser420'
p607
S'ff35ccf24642c341e0084222132880e85a3a39df2024e9586e0e1ecdaf8ca6a4'
p608
sS'houstonUser423'
p609
S'96f4f8469d43dd58864ca61e5709d7dc5e7310747336d40cce0db94b047a46ad'
p610
sS'houstonUser422'
p611
S'08c72502173e16deee620e7daf97460b409d00903e6b4ed06d8aeab71a2699c7'
p612
sS'houstonUser11'
p613
S'f0dc44946d8cb7eea231fd4e25192019d9367ae02ca8cac434271b562fb8089c'
p614
sS'houstonUser10'
p615
S'7fd385b0433d617213248f2e128bcb05cd92e7577295bb50b8ce2672b0bdc2ac'
p616
sS'houstonUser13'
p617
S'1fb925a6dcd0c4cd56937cfafaf05c8f4cf30aeca490af91773f31faf08bb4e3'
p618
sS'houstonUser12'
p619
S'5ed6b53a4e184572f7b160cf4b9c4257c6ef665f374764a1cca6662ceb3e7cb3'
p620
sS'houstonUser15'
p621
S'4c50cfe0115bb7fcd38d866606a5982b9377139a5e180175a5a33b65d08d58a5'
p622
sS'houstonUser14'
p623
S'f4f8c9a4936b0a8d9dce67d458d1cb4d3969a524328e08be067b011b3241fcb5'
p624
sS'houstonUser17'
p625
S'e7023e3504cea39ea469dd22bf2628a64335c1a265a272459f1c12f1a25c0fda'
p626
sS'houstonUser16'
p627
S'30a6e02ab74ff24b62313c700e49107931568aa63eebc03c0955d15d80a07024'
p628
sS'houstonUser19'
p629
S'b2e8e84735c60f469df9fa1bcabb93700af11744f406b9b712a5be14a1d3d167'
p630
sS'houstonUser18'
p631
S'20edb58fa92b8a76c4957560b811cd808b742f8bdb1952de077175663a34f229'
p632
sS'houstonUser366'
p633
S'7ae0ec5b147647d661a569cc309c1d7cd426265c043b5bc895b6b5e5a5d69cb9'
p634
sS'houstonUser367'
p635
S'f03da7e89e48c6799bed6a1ee02cafef641bcb789c80e2cca90609001dcd4328'
p636
sS'houstonUser160'
p637
S'7b1e5ef9d9766c9681abb1e10946bcec74c129bc706bbfeafe5993c760efe6b6'
p638
sS'houstonUser161'
p639
S'd1774be6e9b1addb714787461c8e1f781ba471a7a6d4e7e3a2cf63d383d2854e'
p640
sS'houstonUser162'
p641
S'e3cc60f4ed5c26fb358d1f91286252cc61b7a6b2a9a17cecd8ff542514637237'
p642
sS'houstonUser163'
p643
S'99fdf957e1327139f1cd3c77999231994c19406e4331ae39932e0dd69f95e8a4'
p644
sS'houstonUser164'
p645
S'f65160203730f509ad5c075a41d41fffce828f7834b823714455dea34d8ebd73'
p646
sS'houstonUser165'
p647
S'22bdab9870d9df902be39c6c2cc6036f6475b015e80f93ba2742221beb4ac3c4'
p648
sS'houstonUser166'
p649
S'bd949ae17ee03260eee76fa94114b200673be46e9754b9928344e1eab36839e0'
p650
sS'houstonUser167'
p651
S'9dc9195488b23a4cfa1323324978f0bf79f115346830ab63890d1cf5cbe8698a'
p652
sS'houstonUser168'
p653
S'678c2dc9fd7d649ef33ddc0df45ecefdf45fa6087a753a64def89a7f8ed1892b'
p654
sS'houstonUser169'
p655
S'8131c7d09c83385626637ac3ce628e44e6fe0f5557b8079fd953ff01d79e5e5e'
p656
sS'houstonUser368'
p657
S'211a62ab071672ad430ca49ec7435bd18e098a48eeece60d32b5e9b71ac5c9cf'
p658
sS'houstonUser289'
p659
S'df03e3c709b9348d1a176ebb8f8714f4ea19d46b57b8c473a1434fa22da06bc9'
p660
sS'houstonUser288'
p661
S'c3bbc0b1732a5cab530c511d6706fe7d853ed3845a1d07098955a1e85935176e'
p662
sS'houstonUser369'
p663
S'463ddbaab51ef8d5990f0f9bc045b090b2b0ef7eb57916ecd50c9210d73bec7a'
p664
sS'houstonUser281'
p665
S'ec1a18b22dfb5a7d4727fa0a49db35d214efa5d2c336eb9a0a445269f33dc7cf'
p666
sS'houstonUser280'
p667
S'94f8e8125ed5d471ba80c41132be5eaba58784bb762a30a7ff1f48a88bee995f'
p668
sS'houstonUser283'
p669
S'fcfc28ed823121d208a84d375f856e444c4f9498e672526d4e51911377498ca9'
p670
sS'houstonUser282'
p671
S'aa0f7af66dc4deb27338fd7f3dc02d264216861157e67627e13e16cdb49f1194'
p672
sS'houstonUser285'
p673
S'ff01a95db55f245669833ef76dbffb895489a0bfe16cc6ef9ea4dda8525c0a6f'
p674
sS'houstonUser284'
p675
S'82b5f24b68e7b5f130c92a2176a6e4c5bd1a96a9a140d3ac81b8e37526279268'
p676
sS'houstonUser287'
p677
S'd5fd4d2814fc47a3529f82ec1c33d171b3427effff728b0b8235ed327cb2945c'
p678
sS'houstonUser286'
p679
S'7d64892c84f467bfe332cd1dbc66dc396d4cf87e7fe515bd02a8dd8663456adc'
p680
sS'houstonUser9'
p681
S'9c7f4939cebf866d04f6e6873e37b0487a3db0d3074056b97c8da70c96100047'
p682
sS'houstonUser8'
p683
S'002227e87cee3c3671f82bdb9a337bee4880eafe357ccad7369f587c809a7bc1'
p684
sS'houstonUser238'
p685
S'3cd21dc8f57e267a3b1471b55afd136c458849667adb2ae5bed2265f8f40bf65'
p686
sS'houstonUser239'
p687
S'd3eef7e205076320f1d641cc6f2e176115be72c0cb64d0a6b70d0542026618c7'
p688
sS'houstonUser1'
p689
S'afecbd45437a6584ebf9dd9941a15e379dce78417da5830ca3aa017c34ff0890'
p690
sS'houstonUser0'
p691
S'ef69660838b928338f971a39c725021f917359e0f7fbdc37b61db5b567f2a69a'
p692
sS'houstonUser3'
p693
S'9d9e75feae92e4c6692faf586fc6daf02719136bf07c5a1146109896ac896a34'
p694
sS'houstonUser2'
p695
S'5a47f8108842196c2782044f1a6abd604ca8642bee7a0bd840b6f7c7742922c3'
p696
sS'houstonUser230'
p697
S'ef2e893c3285b8c8f70f9f21bde9c9e3bdb8748aca2beea06036b14193bebbae'
p698
sS'houstonUser231'
p699
S'cb87e89811ac33ecacf0287ca1e1e2541f784b8c5adc0d10ee05dcd952d1ed46'
p700
sS'houstonUser232'
p701
S'a8b44bf5e8c9b6ea1a39c1e3d1cd33a0e696e91884786d0e567c40d8596a5249'
p702
sS'houstonUser233'
p703
S'ed61dea038079197536d9011e440fc253f041906e014c9e7b0778e75f3e3b285'
p704
sS'houstonUser382'
p705
S'8fd6a4850ce7c549935117d0a1c806e2316440ec02b88eaaf7ed036a6a30487a'
p706
sS'houstonUser461'
p707
S'dc9f3e6c7949e086ad12c1623597fd59fb5730b40f51f8d58dfccbd932e455ac'
p708
sS'houstonUser460'
p709
S'8757b35dcdc35d2823c8c330b6a2d749424b8cd8ad7219749b3e54b9c27c693c'
p710
sS'houstonUser463'
p711
S'4da15d54d6b285444d8a22f1bf6bd77b709239cd9d28d08d089e42b27255ef2c'
p712
sS'houstonUser383'
p713
S'3ce003efe7e3bbdb5d0a9225bbbd4d64de8a016b383c1be038d6d58ae3e49f31'
p714
sS'houstonUser465'
p715
S'e5b96311b43470ddcdc8e9d53b3f855f139c1e97de0467531d710cc75ef4356c'
p716
sS'houstonUser464'
p717
S'f72dbabd22165e88d5f4f886081daf3de8198d30f06fd3c8d18614dccca3cfc5'
p718
sS'houstonUser467'
p719
S'c40cc60e9fa544e344c56c272b5c2eaf14e5243f031a3fe697f502dad6ec86c1'
p720
sS'houstonUser466'
p721
S'aea1c2ef5008b556bb46a30e67cf65c12f33d925eb36c52b4af16307179ea8e9'
p722
sS'houstonUser469'
p723
S'580c84e59aba78a52ae9f44edd3a57f14f0978e44df89fd182b761946b93a6da'
p724
sS'houstonUser468'
p725
S'c5bf49baea247e999e13e7ab75d729b34d9656c7d37a26f8b0fcbf888a2cc406'
p726
sS'houstonUser385'
p727
S'e6a84c47e6bae2cb63e64d601e2b022398944afbe55cc625c4baf1ca29867565'
p728
sS'houstonUser388'
p729
S'12d8c2440167a5e1d25b86a24220e6a51ddecb113f8e3ac149354cb70d12b7ec'
p730
sS'houstonUser389'
p731
S'7defbd9c3a38e46d7d2a60008833797b34a2501bb605e2e6cadf146319e10009'
p732
sS'houstonUser308'
p733
S'c2626430e75ed7ae8fb610ae2c1aa1e148d813bfdf61d63a4b3c09ce8fd56fb9'
p734
sS'houstonUser309'
p735
S'8949e17a77c529a4ce953f56a863d1db302b212e463b38025a19803fcb688d05'
p736
sS'houstonUser300'
p737
S'5ec30f8f6c2a9c4515e4cbe3c8a62aa1537b082ccb9ea9fce292bbf36acf7773'
p738
sS'houstonUser301'
p739
S'04fafa3ebd40c9436f8b4bf8c70caa9da0d3ac2aae6b139daa5f777fbcfb3f6e'
p740
sS'houstonUser302'
p741
S'3e65f2524eefe53d622f62cc1dda5a556e952e6effc48b3f9c2f48f9aa916226'
p742
sS'houstonUser303'
p743
S'2a9d8b8afdf31108869235fad63a9f0ae06e8f5a1d2d8b414ff729129bae3bd5'
p744
sS'houstonUser304'
p745
S'92d69d0fd3580e9de9c93ef4ef43c3ae13b50f4b9e610eb7ffeee4fe97a040d4'
p746
sS'houstonUser305'
p747
S'bc4578293ef37775927a38fe83e41e9b2217e443512f27319660585a0d6811e7'
p748
sS'houstonUser306'
p749
S'3bb4ba7670b2967687c76f7398abf33ffc0eaceebb12bf648eebce0267de94bf'
p750
sS'houstonUser307'
p751
S'8e85c2e63a88f6108f2000c2f86fcbd66a017f468dfa2f4549799b0f5eeda202'
p752
sS'houstonUser124'
p753
S'0b367d55fcbad6a7710252dfc89a8bced33e49d7d7af1e7a0aba8b128f08b3b5'
p754
sS'houstonUser125'
p755
S'205bda902e96c3af82df0b0f35ef04eeb78f884d7e6a980b1520c34bb7a8e715'
p756
sS'houstonUser126'
p757
S'8f080ccf49c5864d519c89f5a29355c730dc119994e9839be66b9d04a222e662'
p758
sS'houstonUser127'
p759
S'1902416fbf73d390a273c42f1da6334f10e12ffc3d55838d8abce502356d3dcc'
p760
sS'houstonUser120'
p761
S'cad0f93ff0ab8bf42d4e0f4f85c20c6a16007763e97ec4cf2f51ac450db3c035'
p762
sS'houstonUser121'
p763
S'290d3395e39808fe2b815f4733cc365bbe758ca76d274b3d62b63260d2d1940f'
p764
sS'houstonUser122'
p765
S'0fe1fdf3e42dc6c81582c7c1dbb6d28363a42aafad9776afbead82c4099b21d2'
p766
sS'houstonUser123'
p767
S'0c849f38cab9b061e1f091bb018688ef1d67b9413031bb7dcdb0067ff83ca481'
p768
sS'houstonUser128'
p769
S'726f7181fafe44e317e3a9c13e4c711767c40b495191ad7da242756074b52fb1'
p770
sS'houstonUser129'
p771
S'8ffc30d4e0f8fdee661e130db61979a14ffebe14ba0dc3108cfc5e50f65f89a7'
p772
sS'houstonUser48'
p773
S'bb71da08457c44a691a2f3a5ff92f8fe0c7965edbf17fe93a977583f99d9e4ce'
p774
sS'houstonUser49'
p775
S'b536cf78bcc5656bc70e04248017ad2b0c0a94e3061be0a6e69df95710f825fb'
p776
sS'houstonUser46'
p777
S'eb66c1b2ffd3a517c801599b6540cb80ab5f5b855bfd702cbffe48d949032af0'
p778
sS'houstonUser47'
p779
S'1fff0002251cac1efdb5f86a16c55d5ad6628f6896780440eb51d8934d5f69ba'
p780
sS'houstonUser44'
p781
S'c79d2a2dd55470f1f87f2c3dc66f1e9efa86dd10370ff2597149c6d94a3467aa'
p782
sS'houstonUser45'
p783
S'6ee331e81e6ee441db18af8a5ee7de137c55956ae83f850d7667910ff72b67b0'
p784
sS'houstonUser42'
p785
S'0af5774950b07e1ec0a51583090a89ae7c0176eff2d52b21ed761cbb207bcf05'
p786
sS'houstonUser43'
p787
S'7250997fa81b199995f32b15ae4df3c3c8dbac0765f423f576f21bc09239f896'
p788
sS'houstonUser40'
p789
S'4c9b8515c57a9fea0bcc562afb83e5a3161e70b2209a60050c5a9ebe3316e6a1'
p790
sS'houstonUser41'
p791
S'dfa3ac51c394b76bc9f6c2caf559114d128061c07f31dd76139f8f2a107bc319'
p792
sS'houstonUser348'
p793
S'9899897e6e1318f03bcb93a371e83161118d42a6f8dc08c7466b25a306ef6015'
p794
sS'houstonUser349'
p795
S'f9bca63d6c55af104ef61d6b2f35f5fc7295b81b2972285e31b33f6b8f736b0f'
p796
sS'houstonUser344'
p797
S'c96a231de5cf86ff5d5e8968a3f454f928ce5d99d86e1ffc69d7a65ab87aeb85'
p798
sS'houstonUser345'
p799
S'abfc602b526c66a08c51754d1ebb13967557810d97bbacfbdbec4b24f1675320'
p800
sS'houstonUser346'
p801
S'557561ff42d4dc29afca0206ab7094ca143585ea5285b99315e5d7099a10aaa7'
p802
sS'houstonUser347'
p803
S'284ab11508cf71ed75ba18d27011b49afa1c3e6e12c802458a1c7a5381fed89a'
p804
sS'houstonUser340'
p805
S'c2c1135bc4604eba177854268dce517d2de55f63bac3dbcc98b907103d24e040'
p806
sS'houstonUser341'
p807
S'6ee045bfc520532ad6dd58e95f16f82791d60d439e1ad57e9ca6da524b2ac86e'
p808
sS'houstonUser342'
p809
S'3bb1fe922d264063da1ccf5b12a3e00a56c59add632d89ea758a1617516f8234'
p810
sS'houstonUser343'
p811
S'8c6a1c6baaf6360c3ec3d6c34c1a6acb6d2e2696201a38d2317b3e834aeac5ae'
p812
sS'houstonUser267'
p813
S'63f1dfa2cd7a719aa74d9734f8bb11cbb43765ff55e8b493d89e93a28b0920db'
p814
sS'houstonUser266'
p815
S'c53d925c211bfec07555b056516d70828eb40020e0bdb215468b94b28c8adc73'
p816
sS'houstonUser265'
p817
S'09dd1e4824e27d7f3a4391d2f4a42a875acc166b45ced3ce54e6e67c50f4482f'
p818
sS'houstonUser264'
p819
S'9c897278fffda5a32a263e7bbf63c63c42a0e85f1a971fa46d357a53bab77452'
p820
sS'houstonUser263'
p821
S'aeae70683490158eb626d65faf12f197c7d8e50c20d9e42df2ad991bded7529e'
p822
sS'houstonUser262'
p823
S'627b87af2b28d116e3983db4eaf81a30590ff9e1dd0519a9c5cbb2777adf5bfd'
p824
sS'houstonUser261'
p825
S'f72a3ea4d88389f3cce22b2ed0521aee8ab5fdfaec0d12583520d6756034bebc'
p826
sS'houstonUser260'
p827
S'e7ec595a7bb5ce6b26b2c7169d97d7a9ac216954432b8d767d6e85e909e0b76a'
p828
sS'houstonUser269'
p829
S'3b535dc1b6b0541fec872678609f7f3c6126a696f4fc46b0d344d31664a19d85'
p830
sS'houstonUser268'
p831
S'79298fbd94e5f81d35ac10bf03ac9f491d7dfeb29facf9e616e6d66f6785eb59'
p832
sS'houstonUser418'
p833
S'5cb47f0ddb132d1ec5cb7d69d1b82b59b51717b8a685ff99f43241343ad406cf'
p834
sS'houstonUser419'
p835
S'8f79d67db2ba98a0901951395058a62dbd1b6c8481d0ff278f7f759d32d8ec97'
p836
sS'houstonUser410'
p837
S'7a43e4c982636cabcf638b0b11978711af7648ef31346d7a666ed5b26080d4f7'
p838
sS'houstonUser411'
p839
S'ed8862603500d5e3f49e02f798e0f37c213e21c7776b10a29a58bfe14c5c6975'
p840
sS'houstonUser412'
p841
S'1b8431263bc00d6faca06cbc4639a9d7cc98d819fb77658b73ff3d514c286c19'
p842
sS'houstonUser413'
p843
S'386d6c28de058f9712b2209434eabe00fd7b7157fb23857281854ad9978f4bf3'
p844
sS'houstonUser414'
p845
S'3e7a0072f85d8bcc958de7d3efc88f99bbb975c74b1cae15611f4bcc71d9525b'
p846
sS'houstonUser415'
p847
S'a72b2d35797a2b2a841326d2f1e43fac668fc59192081a2dd4ad9c46f1ef364a'
p848
sS'houstonUser416'
p849
S'9e73cf66cdad3e158b5b7c0520f911e1600b9492a62912ee21a7044000ef2772'
p850
sS'houstonUser417'
p851
S'b17c36d7cb6a7b40d7994b9f35706400156d89c69072d6e98abdbf93d4bb1feb'
p852
sS'houstonUser179'
p853
S'afcd06940a999965cf490f185f0bc093f1ab652f8ad06ef2d1d75f858c1bb266'
p854
sS'houstonUser178'
p855
S'c5b5779ad2a06bfc8a8ce739e499e541eb7d3d285f028c10953deecc65fdbaa7'
p856
sS'houstonUser177'
p857
S'b77f9314a93fa4bffb6f2686bd3eec296d91ad2ebe9502d6d0106f065f1acfdb'
p858
sS'houstonUser176'
p859
S'59e930e7884d904dea86cff1a8d130e8d44414bf4fb54ee51a853bec10640411'
p860
sS'houstonUser175'
p861
S'0a0c2a25dfdddd0e4802b3fcd56d0d8e5fc6be8b8809bd50846727062433a082'
p862
sS'houstonUser174'
p863
S'73da3e6742f763b8dd515c0d00b5f53ca2674f81e03c3c36800ac82d76bb3f6b'
p864
sS'houstonUser173'
p865
S'c7aa4b1395c41c963f6dca1c0c0edd16a9e7ffb431bff6dd7bbf8c2845e063f6'
p866
sS'houstonUser172'
p867
S'66cf1878c4fc84134b4bd3fe7e87e59d37cde2361ab8f7a363894f9cf8254d3d'
p868
sS'houstonUser171'
p869
S'9e3aaa84f334d21ce3eb748308968654e942c182de7332eab44f094b60f691df'
p870
sS'houstonUser170'
p871
S'ec146269c377e27188db3f95611ee6cbbb43c867bba387abcbb287ee9e2fbf0d'
p872
sS'houstonUser99'
p873
S'109b534c77cbd0bee44099884b596314b40ec57ea0f49c235164950416e286dc'
p874
sS'houstonUser98'
p875
S'cade9acb2b8ee43355ae7be6f4ce814eb4312615332c32590bb91c85158d85da'
p876
sS'houstonUser91'
p877
S'85fcc29cda4249f99a945e1442c8e359768193239cec6c99f0a47419c9e3c6a0'
p878
sS'houstonUser90'
p879
S'5e570d6ff48498a5281d15e162e2c1fb326b4c8df930a30206ffbcc3dffcbef1'
p880
sS'houstonUser93'
p881
S'4843a7ad83e830b40edfe31ce79aa9e0330b6207445aba8aa8b0322d4071e49c'
p882
sS'houstonUser92'
p883
S'412e2143bf6aa3538f1572fd2339c0b58c99eef989309028c09079011564e2b8'
p884
sS'houstonUser95'
p885
S'8b21f8aa12e7bed32cce6455b6f7578c1a6e5f95f8f4696226c91e121c1fcb71'
p886
sS'houstonUser94'
p887
S'ded57722f4b077ffc09c836febeb562c3bd6a7806b3605a0667c343dff6e838d'
p888
sS'houstonUser97'
p889
S'e3ec5a3452a3fd7dbc5a0756950b236a9e37e7409c290117ef5c8cb6ae253317'
p890
sS'houstonUser96'
p891
S'1f6628bde84df3f603f3c1579131efb765ec2011f5733665090f6b04a4e53b48'
p892
sS'houstonUser258'
p893
S'c0e063717bf4b5bfe87f0e46ebb33d4a8bc2c63e259bca238e6c7982c7ca1b48'
p894
sS'houstonUser259'
p895
S'a23097bc3bb22a96596e4a6ab5f6ce0775171de24db8129251c13fa17af34d17'
p896
sS'houstonUser182'
p897
S'd56010b41ddd91f77a21e0e3e0934963513534b89bf9a2b0331b9c82899ef873'
p898
sS'houstonUser183'
p899
S'35b63508cdf91795ab8a2150b0d621dafcb95e3d15545f81f5747ad798705c16'
p900
sS'houstonUser180'
p901
S'6a49654f497707709f97fc4b69ff31e02d7de3f75744dfc7a1cbfe669679e0fa'
p902
sS'houstonUser181'
p903
S'4c440a745ca2e68dad87a4e6a1a1e41cf8f3464eb7b60715aaed473a766ad524'
p904
sS'houstonUser186'
p905
S'a4c7843f4ba1755c0ddaf0b2b98649d6d539fc8480bc191e5fd1e3727142f749'
p906
sS'houstonUser187'
p907
S'170ea8537990779268fc806de48f86296ef38abe183b0e20aadf7ab3e93dfde6'
p908
sS'houstonUser184'
p909
S'833d5ddd69ea6535d91782c268a9a9c092553fd05d2458efcc38834346eb6cfc'
p910
sS'houstonUser185'
p911
S'e28a596a821ff99113d567f33b232be72586f3aadec04bf424f9f41783b7f44b'
p912
sS'houstonUser188'
p913
S'419f7cfe53393d56b2cf2af88f790e4e05d981bddeee070e3253e71b1535145e'
p914
sS'houstonUser189'
p915
S'e51acef6ec280c34a46196e4ba447c736583dbca0d0df92fab654e9b97ea5952'
p916
sS'houstonUser380'
p917
S'fb08f93dd9e25ca4e7a4b4763993a6fb48563c181249ae5b1e0fbcafaa052b43'
p918
sS'houstonUser381'
p919
S'2023e023f9d6dbbd8730798f8134a89a5bf6cbe6c0fe93386f5e941ecf7db540'
p920
sS'houstonUser229'
p921
S'94f631dcd7c779bf82d10d68ffd059b0fde006bdc98ddcab239a9d9bbb0cab5f'
p922
sS'houstonUser228'
p923
S'cda7bd2d5b80a2b2d167436dc1f549358031def06f1cc9c2e54dda62e5075a77'
p924
sS'houstonUser384'
p925
S'd3bdf681a7edb73ba7f2e335189b6a3c6fc39a189f4d0bb7bc212be0684b5d87'
p926
sS'houstonUser250'
p927
S'af774d6680cbb646476c1e2234a282767cdc4e5b597af27af5ed846a60414e58'
p928
sS'houstonUser386'
p929
S'31f5987ffa5f573cbc0eea3f9e84ce7d692eeb99309a4fd4bc0c40438f03380e'
p930
sS'houstonUser387'
p931
S'5af36ea3f52951a5770efb9588cc5b8f7c6a6c85421cbbe0f73917cd92ef4e46'
p932
sS'houstonUser223'
p933
S'd496b529ea315de9cf4176ce3c6d10a919aa526c8dd2bff5ce6d557d63764809'
p934
sS'houstonUser222'
p935
S'e68fd035503eaa1fb74c32fa1d13aa81385273f2a1ed0e4ab56b3b3bb1b36f01'
p936
sS'houstonUser221'
p937
S'1fd519ebd19e53fddd82098d391c36eb42dc8db3ce35ee3814e65d6afc0490ad'
p938
sS'houstonUser220'
p939
S'ad63aa1d2e6a11f204ade97a665b95061a09b42337a968c503fe77940855e22f'
p940
sS'houstonUser227'
p941
S'24ade2c744dc0285b72b535dea7b18e1130f97c9759ee5f441444a4412fb0c52'
p942
sS'houstonUser226'
p943
S'9560fb152d691445aa80976590faf495ba5d160106bec93c8a6bd1459c4dfa6a'
p944
sS'houstonUser225'
p945
S'b26eab8f5610a838c8fcc3a574964e13c24d1b7ccc0e0307dd29aa82bb450188'
p946
sS'houstonUser224'
p947
S'ab37dc14f47c04604442c361898fa9f58bc4f94a1e7f3f1b45567e23f7b2797e'
p948
sS'houstonUser458'
p949
S'c2a58687254656e782834b137df33df452fb3799b1360f950501e46ecce0bdb1'
p950
sS'houstonUser459'
p951
S'0c6f7bb568ea20603a9fb386bf83ae6678e089cf2f7e8525cdfdadad07ecb69d'
p952
sS'houstonUser454'
p953
S'591857cf0a54b379b5b7dd65e5c37ffbb68c1d90f95ebe99930b7332aa4be9a9'
p954
sS'houstonUser455'
p955
S'581843ca6beb4e404bf2d202c526e082947ba5580459a8fca3b65a59360b0742'
p956
sS'houstonUser456'
p957
S'2839b376317e05be0cf3b4da460a38621af5782ef47d65cc5e08c0d5837b7a0b'
p958
sS'houstonUser457'
p959
S'2860455e51219eecbc53d3ac27d39f5bb74ffa5c9e4481abfd40810b82a0812f'
p960
sS'houstonUser450'
p961
S'38b5ce96d7c9a653126b711730e9d6a318a62c8b530c21042e4d7131e0e8133d'
p962
sS'houstonUser451'
p963
S'9adfc208f731f8caea767496005f6ed067af8d1fdcc2bc7de1df9d2fe51e9af8'
p964
sS'houstonUser452'
p965
S'142a85e9c3e8b10bdff595f126caef2b5edb0d267f4bbe63873ba023a435dd9d'
p966
sS'houstonUser453'
p967
S'daed5d59a697ec8177eb2a3ad11dd9868d0e4d62a60a37f65454f8c1b2527191'
p968
sS'houstonUser317'
p969
S'0b0fc0169664b0fce2077d058e6700866aa01e2d7852ad00f7ad0002661041c3'
p970
sS'houstonUser316'
p971
S'bf90b20720210710b9f11388b7666b5f240a84f71cccc8340f179dcb139691c7'
p972
sS'houstonUser315'
p973
S'6a7e8abe6f4f52c3f8a5bc6662d440c892e0d5ed0926abcd54a28a333eba6110'
p974
sS'houstonUser314'
p975
S'398ecf36a3030a29f039c4025be427e88c2bf79f6f48d1399aa956dc33cdaab6'
p976
sS'houstonUser313'
p977
S'36767f915d40b8f19f78337db20f6820de5f8a4ca060f5b029286d95f4e3dc00'
p978
sS'houstonUser312'
p979
S'43ecc7e938ba8ef0f462ca66a458b8896cf90d95a71605e1655047fc45f12ea8'
p980
sS'houstonUser311'
p981
S'df74588b91e218b1d97b69db8bda986c61af90289888418b57f4df94b159b94d'
p982
sS'houstonUser310'
p983
S'eaedb46bd30bfb9911939fefa1aea29dabadf03e482926c7ab2f0f7f0441c716'
p984
sS'houstonUser256'
p985
S'e7ecb75f9cc9e60ca3f6c89b0b30538b99fe660936b21fdf782c6f66bead08a4'
p986
sS'houstonUser257'
p987
S'8a05de514f2103fac6298c18ef7fffb3bd8a0d5aa99757b641fb70a7c7662596'
p988
sS'houstonUser254'
p989
S'8552dcb20297cd0c2c67a3842241f54522588d864420567579638654a8b3178c'
p990
sS'houstonUser255'
p991
S'3f82a7ceb7d038ad3f6d58845dd1e5eb2810aaa38bbb52d490f162fc12e08295'
p992
sS'houstonUser252'
p993
S'3949e8f143e1d2873eddf2006b0761890791e9d73f49b917f7db6bdbbce54181'
p994
sS'houstonUser253'
p995
S'a0715e03e7b704a7c141255f214367b29e8eadc62d7b170054b6e135cb0bdf13'
p996
sS'houstonUser319'
p997
S'26534496564b2f3274e7098ed38b050b27aa8f2f32b083c4c2fde8f74816a50b'
p998
sS'houstonUser318'
p999
S'8400f06228e262675434115db9768dfc35fd43217514f74b2f920d52679a339b'
p1000
s.